; ModuleID = 'source-C-CXX/48/588.cpp'
source_filename = "source-C-CXX/48/588.cpp"
target datalayout = "e-m:e-p270:32:32-p271:32:32-p272:64:64-i64:64-f80:128-n8:16:32:64-S128"
target triple = "x86_64-pc-linux-gnu"

%"class.std::ios_base::Init" = type { i8 }
%"class.std::basic_istream" = type { i32 (...)**, i64, %"class.std::basic_ios" }
%"class.std::basic_ios" = type { %"class.std::ios_base", %"class.std::basic_ostream"*, i8, i8, %"class.std::basic_streambuf"*, %"class.std::ctype"*, %"class.std::num_put"*, %"class.std::num_get"* }
%"class.std::ios_base" = type { i32 (...)**, i64, i64, i32, i32, i32, %"struct.std::ios_base::_Callback_list"*, %"struct.std::ios_base::_Words", [8 x %"struct.std::ios_base::_Words"], i32, %"struct.std::ios_base::_Words"*, %"class.std::locale" }
%"struct.std::ios_base::_Callback_list" = type { %"struct.std::ios_base::_Callback_list"*, void (i32, %"class.std::ios_base"*, i32)*, i32, i32 }
%"struct.std::ios_base::_Words" = type { i8*, i64 }
%"class.std::locale" = type { %"class.std::locale::_Impl"* }
%"class.std::locale::_Impl" = type { i32, %"class.std::locale::facet"**, i64, %"class.std::locale::facet"**, i8** }
%"class.std::locale::facet" = type <{ i32 (...)**, i32, [4 x i8] }>
%"class.std::basic_ostream" = type { i32 (...)**, %"class.std::basic_ios" }
%"class.std::basic_streambuf" = type { i32 (...)**, i8*, i8*, i8*, i8*, i8*, i8*, %"class.std::locale" }
%"class.std::ctype" = type <{ %"class.std::locale::facet.base", [4 x i8], %struct.__locale_struct*, i8, [7 x i8], i32*, i32*, i16*, i8, [256 x i8], [256 x i8], i8, [6 x i8] }>
%"class.std::locale::facet.base" = type <{ i32 (...)**, i32 }>
%struct.__locale_struct = type { [13 x %struct.__locale_data*], i16*, i32*, i32*, [13 x i8*] }
%struct.__locale_data = type opaque
%"class.std::num_put" = type { %"class.std::locale::facet.base", [4 x i8] }
%"class.std::num_get" = type { %"class.std::locale::facet.base", [4 x i8] }

@_ZStL8__ioinit = internal global %"class.std::ios_base::Init" zeroinitializer, align 1
@__dso_handle = external hidden global i8
@_ZSt3cin = external global %"class.std::basic_istream", align 8
@_ZSt4cout = external global %"class.std::basic_ostream", align 8
@llvm.global_ctors = appending global [1 x { i32, void ()*, i8* }] [{ i32, void ()*, i8* } { i32 65535, void ()* @_GLOBAL__sub_I_588.cpp, i8* null }]

declare void @_ZNSt8ios_base4InitC1Ev(%"class.std::ios_base::Init"* nonnull align 1 dereferenceable(1)) unnamed_addr #0

; Function Attrs: nounwind
declare void @_ZNSt8ios_base4InitD1Ev(%"class.std::ios_base::Init"* nonnull align 1 dereferenceable(1)) unnamed_addr #1

; Function Attrs: nofree nounwind
declare i32 @__cxa_atexit(void (i8*)*, i8*, i8*) local_unnamed_addr #2

; Function Attrs: mustprogress norecurse sspstrong uwtable
define dso_local i32 @main() local_unnamed_addr #3 {
  %1 = alloca i8, align 1
  %2 = alloca [501 x i8], align 16
  %3 = getelementptr inbounds [501 x i8], [501 x i8]* %2, i64 0, i64 0
  call void @llvm.lifetime.start.p0i8(i64 501, i8* nonnull %3) #8
  call void @_ZSt17__istream_extractRSiPcl(%"class.std::basic_istream"* nonnull align 8 dereferenceable(16) @_ZSt3cin, i8* nonnull %3, i64 501)
  %4 = call i64 @strlen(i8* noundef nonnull %3) #9
  %5 = trunc i64 %4 to i32
  %6 = icmp slt i32 %5, 2
  br i1 %6, label %75, label %7

7:                                                ; preds = %0, %72
  %8 = phi i32 [ %10, %72 ], [ %5, %0 ]
  %9 = phi i32 [ %73, %72 ], [ 2, %0 ]
  %10 = add i32 %8, -1
  %11 = icmp sgt i32 %9, %5
  br i1 %11, label %72, label %12

12:                                               ; preds = %7
  %13 = zext i32 %10 to i64
  br label %14

14:                                               ; preds = %12, %68
  %15 = phi i32 [ %9, %12 ], [ %70, %68 ]
  %16 = phi i64 [ 0, %12 ], [ %69, %68 ]
  %17 = sext i32 %15 to i64
  br label %18

18:                                               ; preds = %18, %14
  %19 = phi i64 [ %21, %18 ], [ %17, %14 ]
  %20 = phi i64 [ %29, %18 ], [ %16, %14 ]
  %21 = add nsw i64 %19, -1
  %22 = getelementptr inbounds [501 x i8], [501 x i8]* %2, i64 0, i64 %20
  %23 = load i8, i8* %22, align 1, !tbaa !5
  %24 = getelementptr inbounds [501 x i8], [501 x i8]* %2, i64 0, i64 %21
  %25 = load i8, i8* %24, align 1, !tbaa !5
  %26 = icmp eq i8 %23, %25
  %27 = icmp slt i64 %20, %21
  %28 = select i1 %26, i1 %27, i1 false
  %29 = add nuw nsw i64 %20, 1
  br i1 %28, label %18, label %30, !llvm.loop !8

30:                                               ; preds = %18
  br i1 %27, label %68, label %31

31:                                               ; preds = %30
  %32 = zext i32 %15 to i64
  br label %33

33:                                               ; preds = %31, %33
  %34 = phi i64 [ %16, %31 ], [ %38, %33 ]
  %35 = getelementptr inbounds [501 x i8], [501 x i8]* %2, i64 0, i64 %34
  %36 = load i8, i8* %35, align 1, !tbaa !5
  call void @llvm.lifetime.start.p0i8(i64 1, i8* nonnull %1)
  store i8 %36, i8* %1, align 1, !tbaa !5
  %37 = call nonnull align 8 dereferenceable(8) %"class.std::basic_ostream"* @_ZSt16__ostream_insertIcSt11char_traitsIcEERSt13basic_ostreamIT_T0_ES6_PKS3_l(%"class.std::basic_ostream"* nonnull align 8 dereferenceable(8) @_ZSt4cout, i8* nonnull %1, i64 1)
  call void @llvm.lifetime.end.p0i8(i64 1, i8* nonnull %1)
  %38 = add nuw nsw i64 %34, 1
  %39 = icmp eq i64 %38, %32
  br i1 %39, label %40, label %33, !llvm.loop !10

40:                                               ; preds = %33
  %41 = load i8*, i8** bitcast (%"class.std::basic_ostream"* @_ZSt4cout to i8**), align 8, !tbaa !11
  %42 = getelementptr i8, i8* %41, i64 -24
  %43 = bitcast i8* %42 to i64*
  %44 = load i64, i64* %43, align 8
  %45 = add nsw i64 %44, 240
  %46 = getelementptr inbounds i8, i8* bitcast (%"class.std::basic_ostream"* @_ZSt4cout to i8*), i64 %45
  %47 = bitcast i8* %46 to %"class.std::ctype"**
  %48 = load %"class.std::ctype"*, %"class.std::ctype"** %47, align 8, !tbaa !13
  %49 = icmp eq %"class.std::ctype"* %48, null
  br i1 %49, label %50, label %51

50:                                               ; preds = %40
  call void @_ZSt16__throw_bad_castv() #10
  unreachable

51:                                               ; preds = %40
  %52 = getelementptr inbounds %"class.std::ctype", %"class.std::ctype"* %48, i64 0, i32 8
  %53 = load i8, i8* %52, align 8, !tbaa !17
  %54 = icmp eq i8 %53, 0
  br i1 %54, label %58, label %55

55:                                               ; preds = %51
  %56 = getelementptr inbounds %"class.std::ctype", %"class.std::ctype"* %48, i64 0, i32 9, i64 10
  %57 = load i8, i8* %56, align 1, !tbaa !5
  br label %64

58:                                               ; preds = %51
  call void @_ZNKSt5ctypeIcE13_M_widen_initEv(%"class.std::ctype"* nonnull align 8 dereferenceable(570) %48)
  %59 = bitcast %"class.std::ctype"* %48 to i8 (%"class.std::ctype"*, i8)***
  %60 = load i8 (%"class.std::ctype"*, i8)**, i8 (%"class.std::ctype"*, i8)*** %59, align 8, !tbaa !11
  %61 = getelementptr inbounds i8 (%"class.std::ctype"*, i8)*, i8 (%"class.std::ctype"*, i8)** %60, i64 6
  %62 = load i8 (%"class.std::ctype"*, i8)*, i8 (%"class.std::ctype"*, i8)** %61, align 8
  %63 = call signext i8 %62(%"class.std::ctype"* nonnull align 8 dereferenceable(570) %48, i8 signext 10)
  br label %64

64:                                               ; preds = %55, %58
  %65 = phi i8 [ %57, %55 ], [ %63, %58 ]
  %66 = call nonnull align 8 dereferenceable(8) %"class.std::basic_ostream"* @_ZNSo3putEc(%"class.std::basic_ostream"* nonnull align 8 dereferenceable(8) @_ZSt4cout, i8 signext %65)
  %67 = call nonnull align 8 dereferenceable(8) %"class.std::basic_ostream"* @_ZNSo5flushEv(%"class.std::basic_ostream"* nonnull align 8 dereferenceable(8) %66)
  br label %68

68:                                               ; preds = %30, %64
  %69 = add nuw nsw i64 %16, 1
  %70 = add nuw i32 %15, 1
  %71 = icmp eq i64 %69, %13
  br i1 %71, label %72, label %14, !llvm.loop !19

72:                                               ; preds = %68, %7
  %73 = add nuw i32 %9, 1
  %74 = icmp eq i32 %9, %5
  br i1 %74, label %75, label %7, !llvm.loop !20

75:                                               ; preds = %72, %0
  call void @llvm.lifetime.end.p0i8(i64 501, i8* nonnull %3) #8
  ret i32 0
}

; Function Attrs: argmemonly mustprogress nofree nosync nounwind willreturn
declare void @llvm.lifetime.start.p0i8(i64 immarg, i8* nocapture) #4

; Function Attrs: argmemonly mustprogress nofree nounwind readonly willreturn
declare i64 @strlen(i8* nocapture) local_unnamed_addr #5

; Function Attrs: argmemonly mustprogress nofree nosync nounwind willreturn
declare void @llvm.lifetime.end.p0i8(i64 immarg, i8* nocapture) #4

declare void @_ZSt17__istream_extractRSiPcl(%"class.std::basic_istream"* nonnull align 8 dereferenceable(16), i8*, i64) local_unnamed_addr #0

declare nonnull align 8 dereferenceable(8) %"class.std::basic_ostream"* @_ZSt16__ostream_insertIcSt11char_traitsIcEERSt13basic_ostreamIT_T0_ES6_PKS3_l(%"class.std::basic_ostream"* nonnull align 8 dereferenceable(8), i8*, i64) local_unnamed_addr #0

declare nonnull align 8 dereferenceable(8) %"class.std::basic_ostream"* @_ZNSo3putEc(%"class.std::basic_ostream"* nonnull align 8 dereferenceable(8), i8 signext) local_unnamed_addr #0

declare nonnull align 8 dereferenceable(8) %"class.std::basic_ostream"* @_ZNSo5flushEv(%"class.std::basic_ostream"* nonnull align 8 dereferenceable(8)) local_unnamed_addr #0

; Function Attrs: noreturn
declare void @_ZSt16__throw_bad_castv() local_unnamed_addr #6

declare void @_ZNKSt5ctypeIcE13_M_widen_initEv(%"class.std::ctype"* nonnull align 8 dereferenceable(570)) local_unnamed_addr #0

; Function Attrs: sspstrong uwtable
define internal void @_GLOBAL__sub_I_588.cpp() #7 section ".text.startup" {
  tail call void @_ZNSt8ios_base4InitC1Ev(%"class.std::ios_base::Init"* nonnull align 1 dereferenceable(1) @_ZStL8__ioinit)
  %1 = tail call i32 @__cxa_atexit(void (i8*)* bitcast (void (%"class.std::ios_base::Init"*)* @_ZNSt8ios_base4InitD1Ev to void (i8*)*), i8* getelementptr inbounds (%"class.std::ios_base::Init", %"class.std::ios_base::Init"* @_ZStL8__ioinit, i64 0, i32 0), i8* nonnull @__dso_handle) #8
  ret void
}


!llvm.module.flags = !{!0, !1, !2, !3}
!llvm.ident = !{!4}

!0 = !{i32 1, !"wchar_size", i32 4}
!1 = !{i32 7, !"PIC Level", i32 2}
!2 = !{i32 7, !"PIE Level", i32 2}
!3 = !{i32 7, !"uwtable", i32 1}
!4 = !{!"clang version 13.0.0"}
!5 = !{!6, !6, i64 0}
!6 = !{!"omnipotent char", !7, i64 0}
!7 = !{!"Simple C++ TBAA"}
!8 = distinct !{!8, !9}
!9 = !{!"llvm.loop.mustprogress"}
!10 = distinct !{!10, !9}
!11 = !{!12, !12, i64 0}
!12 = !{!"vtable pointer", !7, i64 0}
!13 = !{!14, !15, i64 240}
!14 = !{!"_ZTSSt9basic_iosIcSt11char_traitsIcEE", !15, i64 216, !6, i64 224, !16, i64 225, !15, i64 232, !15, i64 240, !15, i64 248, !15, i64 256}
!15 = !{!"any pointer", !6, i64 0}
!16 = !{!"bool", !6, i64 0}
!17 = !{!18, !6, i64 56}
!18 = !{!"_ZTSSt5ctypeIcE", !15, i64 16, !16, i64 24, !15, i64 32, !15, i64 40, !15, i64 48, !6, i64 56, !6, i64 57, !6, i64 313, !6, i64 569}
!19 = distinct !{!19, !9}
!20 = distinct !{!20, !9}
